target datalayout = "e-m:e-p270:32:32-p271:32:32-p272:64:64-i64:64-i128:128-f80:128-n8:16:32:64-S128"
target triple = "x86_64-pc-linux-gnu"

%struct.SurfaceDataRasInfo = type { %struct.SurfaceDataBounds, ptr, i32, i32, i32, i32, ptr, ptr, ptr, ptr, ptr, ptr, i32, %union.anon.0 }
%struct.SurfaceDataBounds = type { i32, i32, i32, i32 }
%union.anon.0 = type { ptr, [56 x i8] }

; Function Attrs: nounwind uwtable
define hidden void @AnyByteSetParallelogram(ptr noundef %0, i32 noundef %1, i32 noundef %2, i32 noundef %3, i32 noundef %4, i64 noundef %5, i64 noundef %6, i64 noundef %7, i64 noundef %8, i32 noundef %9, ptr noundef %10, ptr noundef %11) #0 {
  %13 = alloca ptr, align 8
  %14 = alloca i32, align 4
  %15 = alloca i32, align 4
  %16 = alloca i32, align 4
  %17 = alloca i32, align 4
  %18 = alloca i64, align 8
  %19 = alloca i64, align 8
  %20 = alloca i64, align 8
  %21 = alloca i64, align 8
  %22 = alloca i32, align 4
  %23 = alloca ptr, align 8
  %24 = alloca ptr, align 8
  %25 = alloca i32, align 4
  %26 = alloca ptr, align 8
  %27 = alloca i32, align 4
  %28 = alloca i32, align 4
  store ptr %0, ptr %13, align 8
  store i32 %1, ptr %14, align 4
  store i32 %2, ptr %15, align 4
  store i32 %3, ptr %16, align 4
  store i32 %4, ptr %17, align 4
  store i64 %5, ptr %18, align 8
  store i64 %6, ptr %19, align 8
  store i64 %7, ptr %20, align 8
  store i64 %8, ptr %21, align 8
  store i32 %9, ptr %22, align 4
  store ptr %10, ptr %23, align 8
  store ptr %11, ptr %24, align 8
  %29 = load ptr, ptr %13, align 8
  %30 = getelementptr inbounds %struct.SurfaceDataRasInfo, ptr %29, i32 0, i32 4
  %31 = load i32, ptr %30, align 8
  store i32 %31, ptr %25, align 4
  %32 = load ptr, ptr %13, align 8
  %33 = getelementptr inbounds %struct.SurfaceDataRasInfo, ptr %32, i32 0, i32 1
  %34 = load ptr, ptr %33, align 8
  %35 = ptrtoint ptr %34 to i64
  %36 = load i32, ptr %15, align 4
  %37 = sext i32 %36 to i64
  %38 = load i32, ptr %25, align 4
  %39 = sext i32 %38 to i64
  %40 = mul nsw i64 %37, %39
  %41 = add nsw i64 %40, 0
  %42 = add nsw i64 %35, %41
  %43 = inttoptr i64 %42 to ptr
  store ptr %43, ptr %26, align 8
  br label %44

44:                                               ; preds = %80, %12
  %45 = load i32, ptr %15, align 4
  %46 = load i32, ptr %17, align 4
  %47 = icmp slt i32 %45, %46
  br i1 %47, label %48, label %95

48:                                               ; preds = %44
  %49 = load i64, ptr %18, align 8
  %50 = ashr i64 %49, 32
  %51 = trunc i64 %50 to i32
  store i32 %51, ptr %27, align 4
  %52 = load i64, ptr %20, align 8
  %53 = ashr i64 %52, 32
  %54 = trunc i64 %53 to i32
  store i32 %54, ptr %28, align 4
  %55 = load i32, ptr %27, align 4
  %56 = load i32, ptr %14, align 4
  %57 = icmp slt i32 %55, %56
  br i1 %57, label %58, label %60

58:                                               ; preds = %48
  %59 = load i32, ptr %14, align 4
  store i32 %59, ptr %27, align 4
  br label %60

60:                                               ; preds = %58, %48
  %61 = load i32, ptr %28, align 4
  %62 = load i32, ptr %16, align 4
  %63 = icmp sgt i32 %61, %62
  br i1 %63, label %64, label %66

64:                                               ; preds = %60
  %65 = load i32, ptr %16, align 4
  store i32 %65, ptr %28, align 4
  br label %66

66:                                               ; preds = %64, %60
  br label %67

67:                                               ; preds = %71, %66
  %68 = load i32, ptr %27, align 4
  %69 = load i32, ptr %28, align 4
  %70 = icmp slt i32 %68, %69
  br i1 %70, label %71, label %80

71:                                               ; preds = %67
  %72 = load i32, ptr %22, align 4
  %73 = trunc i32 %72 to i8
  %74 = load ptr, ptr %26, align 8
  %75 = load i32, ptr %27, align 4
  %76 = sext i32 %75 to i64
  %77 = getelementptr inbounds i8, ptr %74, i64 %76
  store i8 %73, ptr %77, align 1
  %78 = load i32, ptr %27, align 4
  %79 = add nsw i32 %78, 1
  store i32 %79, ptr %27, align 4
  br label %67, !llvm.loop !12

80:                                               ; preds = %67
  %81 = load ptr, ptr %26, align 8
  %82 = ptrtoint ptr %81 to i64
  %83 = load i32, ptr %25, align 4
  %84 = sext i32 %83 to i64
  %85 = add nsw i64 %82, %84
  %86 = inttoptr i64 %85 to ptr
  store ptr %86, ptr %26, align 8
  %87 = load i64, ptr %19, align 8
  %88 = load i64, ptr %18, align 8
  %89 = add nsw i64 %88, %87
  store i64 %89, ptr %18, align 8
  %90 = load i64, ptr %21, align 8
  %91 = load i64, ptr %20, align 8
  %92 = add nsw i64 %91, %90
  store i64 %92, ptr %20, align 8
  %93 = load i32, ptr %15, align 4
  %94 = add nsw i32 %93, 1
  store i32 %94, ptr %15, align 4
  br label %44, !llvm.loop !13

95:                                               ; preds = %44
  ret void
}