; Function Attrs: nofree norecurse nosync nounwind memory(write, argmem: readwrite, inaccessiblemem: none) uwtable
define hidden void @AnyByteSetParallelogram(ptr nocapture noundef readonly %0, i32 noundef %1, i32 noundef %2, i32 noundef %3, i32 noundef %4, i64 noundef %5, i64 noundef %6, i64 noundef %7, i64 noundef %8, i32 noundef %9, ptr nocapture readnone %10, ptr nocapture readnone %11) #0 {
  %13 = getelementptr inbounds i8, ptr %0, i64 32
  %14 = load i32, ptr %13, align 8
  %15 = sext i32 %14 to i64
  %16 = icmp slt i32 %2, %4
  br i1 %16, label %.lr.ph43, label %._crit_edge44

.lr.ph43:                                         ; preds = %12
  %17 = sext i32 %2 to i64
  %18 = mul nsw i64 %15, %17
  %19 = getelementptr inbounds i8, ptr %0, i64 16
  %20 = load ptr, ptr %19, align 8
  %21 = ptrtoint ptr %20 to i64
  %22 = add nsw i64 %18, %21
  %23 = trunc i32 %9 to i8
  %24 = sext i32 %1 to i64
  br label %25

25:                                               ; preds = %.lr.ph43, %._crit_edge
  %.027.in40 = phi i64 [ %22, %.lr.ph43 ], [ %36, %._crit_edge ]
  %.02839 = phi i32 [ %2, %.lr.ph43 ], [ %39, %._crit_edge ]
  %.02938 = phi i64 [ %5, %.lr.ph43 ], [ %37, %._crit_edge ]
  %.03037 = phi i64 [ %7, %.lr.ph43 ], [ %38, %._crit_edge ]
  %26 = lshr i64 %.02938, 32
  %27 = trunc nuw i64 %26 to i32
  %28 = lshr i64 %.03037, 32
  %29 = trunc nuw i64 %28 to i32
  %smin = tail call i32 @llvm.smin.i32(i32 %3, i32 %29)
  %smax45 = tail call i32 @llvm.smax.i32(i32 %1, i32 %27)
  %30 = icmp slt i32 %smax45, %smin
  br i1 %30, label %.lr.ph.preheader, label %._crit_edge

.lr.ph.preheader:                                 ; preds = %25
  %.02741 = inttoptr i64 %.027.in40 to ptr
  %31 = xor i32 %smax45, -1
  %32 = add i32 %smin, %31
  %33 = zext i32 %32 to i64
  %34 = add nuw nsw i64 %33, 1
  %35 = ashr i64 %.02938, 32
  %smax = tail call i64 @llvm.smax.i64(i64 %24, i64 %35)
  %scevgep = getelementptr i8, ptr %.02741, i64 %smax
  tail call void @llvm.memset.p0.i64(ptr noundef nonnull align 1 dereferenceable(1) %scevgep, i8 %23, i64 %34, i1 false)
  br label %._crit_edge

._crit_edge:                                      ; preds = %.lr.ph.preheader, %25
  %36 = add nsw i64 %.027.in40, %15
  %37 = add nsw i64 %.02938, %6
  %38 = add nsw i64 %.03037, %8
  %39 = add nsw i32 %.02839, 1
  %exitcond.not = icmp eq i32 %39, %4
  br i1 %exitcond.not, label %._crit_edge44, label %25, !llvm.loop !10

._crit_edge44:                                    ; preds = %._crit_edge, %12
  ret void
}